; Function Attrs: nofree norecurse nosync nounwind memory(read, argmem: readwrite, inaccessiblemem: none) uwtable
define void @stbir__decode_uint8_srgb2_linearalpha(ptr noundef writeonly captures(address) %0, i32 noundef %1, ptr noundef readonly captures(none) %2) #7 {
  %4 = sext i32 %1 to i64
  %.idx = shl nsw i64 %4, 2
  %5 = getelementptr inbounds i8, ptr %0, i64 %.idx
  %.not26 = icmp slt i32 %1, 4
  br i1 %.not26, label %._crit_edge, label %.lr.ph.preheader

.lr.ph.preheader:                                 ; preds = %3
  %.02225 = getelementptr inbounds nuw i8, ptr %0, i64 16
  br label %.lr.ph

.lr.ph:                                           ; preds = %.lr.ph.preheader, %.lr.ph
  %.02229 = phi ptr [ %.022, %.lr.ph ], [ %.02225, %.lr.ph.preheader ]
  %.028 = phi ptr [ %26, %.lr.ph ], [ %2, %.lr.ph.preheader ]
  %.pn27 = phi ptr [ %.02229, %.lr.ph ], [ %0, %.lr.ph.preheader ]
  %6 = load i8, ptr %.028, align 1, !tbaa !4
  %7 = zext i8 %6 to i64
  %8 = getelementptr inbounds nuw [256 x float], ptr @stbir__srgb_uchar_to_linear_float, i64 0, i64 %7
  %9 = load float, ptr %8, align 4, !tbaa !50
  store float %9, ptr %.pn27, align 4, !tbaa !50
  %10 = getelementptr inbounds nuw i8, ptr %.028, i64 1
  %11 = load i8, ptr %10, align 1, !tbaa !4
  %12 = uitofp i8 %11 to float
  %13 = fmul float %12, 0x3F70101020000000
  %14 = getelementptr inbounds nuw i8, ptr %.pn27, i64 4
  store float %13, ptr %14, align 4, !tbaa !50
  %15 = getelementptr inbounds nuw i8, ptr %.028, i64 2
  %16 = load i8, ptr %15, align 1, !tbaa !4
  %17 = zext i8 %16 to i64
  %18 = getelementptr inbounds nuw [256 x float], ptr @stbir__srgb_uchar_to_linear_float, i64 0, i64 %17
  %19 = load float, ptr %18, align 4, !tbaa !50
  %20 = getelementptr inbounds nuw i8, ptr %.pn27, i64 8
  store float %19, ptr %20, align 4, !tbaa !50
  %21 = getelementptr inbounds nuw i8, ptr %.028, i64 3
  %22 = load i8, ptr %21, align 1, !tbaa !4
  %23 = uitofp i8 %22 to float
  %24 = fmul float %23, 0x3F70101020000000
  %25 = getelementptr inbounds nuw i8, ptr %.pn27, i64 12
  store float %24, ptr %25, align 4, !tbaa !50
  %26 = getelementptr inbounds nuw i8, ptr %.028, i64 4
  %.022 = getelementptr inbounds nuw i8, ptr %.02229, i64 16
  %.not = icmp ugt ptr %.022, %5
  br i1 %.not, label %._crit_edge, label %.lr.ph, !llvm.loop !168

._crit_edge:                                      ; preds = %.lr.ph, %3
  %.pn.lcssa = phi ptr [ %0, %3 ], [ %.02229, %.lr.ph ]
  %.0.lcssa = phi ptr [ %2, %3 ], [ %26, %.lr.ph ]
  %27 = icmp ult ptr %.pn.lcssa, %5
  br i1 %27, label %28, label %35

28:                                               ; preds = %._crit_edge
  %29 = load float, ptr @stbir__srgb_uchar_to_linear_float, align 16, !tbaa !50
  store float %29, ptr %.pn.lcssa, align 4, !tbaa !50
  %30 = getelementptr inbounds nuw i8, ptr %.0.lcssa, i64 1
  %31 = load i8, ptr %30, align 1, !tbaa !4
  %32 = uitofp i8 %31 to float
  %33 = fmul float %32, 0x3F70101020000000
  %34 = getelementptr inbounds nuw i8, ptr %.pn.lcssa, i64 4
  store float %33, ptr %34, align 4, !tbaa !50
  br label %35

35:                                               ; preds = %28, %._crit_edge
  ret void
}